; ModuleID = 'source-C-CXX/9/1713.c'
source_filename = "source-C-CXX/9/1713.c"
target datalayout = "e-m:e-p270:32:32-p271:32:32-p272:64:64-i64:64-f80:128-n8:16:32:64-S128"
target triple = "x86_64-pc-linux-gnu"

@.str = private unnamed_addr constant [3 x i8] c"%d\00", align 1

; Function Attrs: nofree nosync nounwind readonly sspstrong uwtable
define dso_local i32 @maxii(i32 %0, i32* %1) local_unnamed_addr #0 {
  %3 = icmp sgt i32 %0, 1
  br i1 %3, label %4, label %24

4:                                                ; preds = %2
  %5 = load i32, i32* %1, align 4, !tbaa !5
  %6 = zext i32 %0 to i64
  br label %7

7:                                                ; preds = %4, %20
  %8 = phi i64 [ 1, %4 ], [ %22, %20 ]
  %9 = phi i32 [ 1, %4 ], [ %21, %20 ]
  %10 = getelementptr inbounds i32, i32* %1, i64 %8
  %11 = load i32, i32* %10, align 4, !tbaa !5
  %12 = icmp sgt i32 %11, %5
  br i1 %12, label %20, label %13

13:                                               ; preds = %7
  %14 = trunc i64 %8 to i32
  %15 = sub nsw i32 %0, %14
  %16 = tail call i32 @maxii(i32 %15, i32* nonnull %10)
  %17 = icmp slt i32 %16, %9
  %18 = add nsw i32 %16, 1
  %19 = select i1 %17, i32 %9, i32 %18
  br label %20

20:                                               ; preds = %13, %7
  %21 = phi i32 [ %9, %7 ], [ %19, %13 ]
  %22 = add nuw nsw i64 %8, 1
  %23 = icmp eq i64 %22, %6
  br i1 %23, label %24, label %7, !llvm.loop !9

24:                                               ; preds = %20, %2
  %25 = phi i32 [ 1, %2 ], [ %21, %20 ]
  ret i32 %25
}

; Function Attrs: argmemonly mustprogress nofree nosync nounwind willreturn
declare void @llvm.lifetime.start.p0i8(i64 immarg, i8* nocapture) #1

; Function Attrs: argmemonly mustprogress nofree nosync nounwind willreturn
declare void @llvm.lifetime.end.p0i8(i64 immarg, i8* nocapture) #1

; Function Attrs: nofree nounwind sspstrong uwtable
define dso_local i32 @main() local_unnamed_addr #2 {
  %1 = alloca i32, align 4
  %2 = alloca [25 x i32], align 16
  %3 = bitcast i32* %1 to i8*
  call void @llvm.lifetime.start.p0i8(i64 4, i8* nonnull %3) #4
  %4 = bitcast [25 x i32]* %2 to i8*
  call void @llvm.lifetime.start.p0i8(i64 100, i8* nonnull %4) #4
  %5 = call i32 (i8*, ...) @__isoc99_scanf(i8* getelementptr inbounds ([3 x i8], [3 x i8]* @.str, i64 0, i64 0), i32* nonnull %1)
  %6 = load i32, i32* %1, align 4, !tbaa !5
  %7 = icmp sgt i32 %6, 0
  br i1 %7, label %12, label %31

8:                                                ; preds = %12
  %9 = icmp sgt i32 %17, 0
  br i1 %9, label %10, label %31

10:                                               ; preds = %8
  %11 = zext i32 %17 to i64
  br label %20

12:                                               ; preds = %0, %12
  %13 = phi i64 [ %16, %12 ], [ 0, %0 ]
  %14 = getelementptr inbounds [25 x i32], [25 x i32]* %2, i64 0, i64 %13
  %15 = call i32 (i8*, ...) @__isoc99_scanf(i8* getelementptr inbounds ([3 x i8], [3 x i8]* @.str, i64 0, i64 0), i32* nonnull %14)
  %16 = add nuw nsw i64 %13, 1
  %17 = load i32, i32* %1, align 4, !tbaa !5
  %18 = sext i32 %17 to i64
  %19 = icmp slt i64 %16, %18
  br i1 %19, label %12, label %8, !llvm.loop !11

20:                                               ; preds = %10, %20
  %21 = phi i64 [ 0, %10 ], [ %29, %20 ]
  %22 = phi i32 [ 1, %10 ], [ %28, %20 ]
  %23 = trunc i64 %21 to i32
  %24 = sub nsw i32 %17, %23
  %25 = getelementptr inbounds [25 x i32], [25 x i32]* %2, i64 0, i64 %21
  %26 = call i32 @maxii(i32 %24, i32* nonnull %25)
  %27 = icmp slt i32 %22, %26
  %28 = select i1 %27, i32 %26, i32 %22
  %29 = add nuw nsw i64 %21, 1
  %30 = icmp eq i64 %29, %11
  br i1 %30, label %31, label %20, !llvm.loop !12

31:                                               ; preds = %20, %0, %8
  %32 = phi i32 [ 1, %8 ], [ 1, %0 ], [ %28, %20 ]
  %33 = call i32 (i8*, ...) @printf(i8* nonnull dereferenceable(1) getelementptr inbounds ([3 x i8], [3 x i8]* @.str, i64 0, i64 0), i32 %32)
  call void @llvm.lifetime.end.p0i8(i64 100, i8* nonnull %4) #4
  call void @llvm.lifetime.end.p0i8(i64 4, i8* nonnull %3) #4
  ret i32 0
}

; Function Attrs: nofree nounwind
declare noundef i32 @__isoc99_scanf(i8* nocapture noundef readonly, ...) local_unnamed_addr #3

; Function Attrs: nofree nounwind
declare noundef i32 @printf(i8* nocapture noundef readonly, ...) local_unnamed_addr #3


!llvm.module.flags = !{!0, !1, !2, !3}
!llvm.ident = !{!4}

!0 = !{i32 1, !"wchar_size", i32 4}
!1 = !{i32 7, !"PIC Level", i32 2}
!2 = !{i32 7, !"PIE Level", i32 2}
!3 = !{i32 7, !"uwtable", i32 1}
!4 = !{!"clang version 13.0.0"}
!5 = !{!6, !6, i64 0}
!6 = !{!"int", !7, i64 0}
!7 = !{!"omnipotent char", !8, i64 0}
!8 = !{!"Simple C/C++ TBAA"}
!9 = distinct !{!9, !10}
!10 = !{!"llvm.loop.mustprogress"}
!11 = distinct !{!11, !10}
!12 = distinct !{!12, !10}
